; Function Attrs: mustprogress uwtable
define hidden noundef zeroext i1 @_ZN3mbp10term_graph9is_groundEP4expr(ptr noundef nonnull align 8 dereferenceable(244) %0, ptr noundef %1) local_unnamed_addr #3 align 2 personality ptr @__gxx_personality_v0 {
  %3 = alloca %class.ast_fast_mark, align 8
  %4 = alloca %"struct.mbp::is_ground_ns::proc", align 8
  call void @llvm.lifetime.start.p0(i64 8, ptr nonnull %4) #27
  %5 = getelementptr inbounds nuw i8, ptr %0, i64 160
  store ptr %5, ptr %4, align 8, !tbaa !17
  call void @llvm.lifetime.start.p0(i64 144, ptr nonnull %3) #27
  %6 = getelementptr inbounds nuw i8, ptr %3, i64 16
  store ptr %6, ptr %3, align 8, !tbaa !8
  %7 = getelementptr inbounds nuw i8, ptr %3, i64 8
  store i32 0, ptr %7, align 8, !tbaa !13
  %8 = getelementptr inbounds nuw i8, ptr %3, i64 12
  store i32 16, ptr %8, align 4, !tbaa !14
  invoke void @_Z18for_each_expr_coreIN3mbp12is_ground_ns4procE13ast_fast_markILj1EELb0ELb0EEvRT_RT0_P4expr(ptr noundef nonnull align 8 dereferenceable(8) %4, ptr noundef nonnull align 8 dereferenceable(144) %3, ptr noundef %1)
          to label %9 unwind label %.body

9:                                                ; preds = %2
  %10 = load ptr, ptr %3, align 8, !tbaa !8
  %11 = load i32, ptr %7, align 8, !tbaa !13
  %12 = zext i32 %11 to i64
  %13 = getelementptr inbounds nuw ptr, ptr %10, i64 %12
  %.not8.i.i.i = icmp eq i32 %11, 0
  br i1 %.not8.i.i.i, label %.loopexit.i.i, label %.lr.ph.i.i.i

.lr.ph.i.i.i:                                     ; preds = %9, %.lr.ph.i.i.i
  %.09.i.i.i = phi ptr [ %18, %.lr.ph.i.i.i ], [ %10, %9 ]
  %14 = load ptr, ptr %.09.i.i.i, align 8, !tbaa !15
  %15 = getelementptr inbounds nuw i8, ptr %14, i64 4
  %16 = load i32, ptr %15, align 4
  %17 = and i32 %16, -65537
  store i32 %17, ptr %15, align 4
  %18 = getelementptr inbounds nuw i8, ptr %.09.i.i.i, i64 8
  %.not.i.i.i = icmp eq ptr %18, %13
  br i1 %.not.i.i.i, label %.loopexit.loopexit.i.i, label %.lr.ph.i.i.i

.loopexit.loopexit.i.i:                           ; preds = %.lr.ph.i.i.i
  %.pre.i.i = load ptr, ptr %3, align 8, !tbaa !8
  br label %.loopexit.i.i

.loopexit.i.i:                                    ; preds = %.loopexit.loopexit.i.i, %9
  %19 = phi ptr [ %.pre.i.i, %.loopexit.loopexit.i.i ], [ %10, %9 ]
  store i32 0, ptr %7, align 8, !tbaa !13
  %.not.i.i.i.i.i = icmp eq ptr %19, %6
  %20 = icmp eq ptr %19, null
  %or.cond.i.i.i.i.i = or i1 %.not.i.i.i.i.i, %20
  br i1 %or.cond.i.i.i.i.i, label %29, label %21

21:                                               ; preds = %.loopexit.i.i
  invoke void @_ZN6memory10deallocateEPv(ptr noundef nonnull %19)
          to label %29 unwind label %22

22:                                               ; preds = %21
  %23 = landingpad { ptr, i32 }
          catch ptr null
  %24 = extractvalue { ptr, i32 } %23, 0
  call void @__clang_call_terminate(ptr %24) #28
  unreachable

.body:                                            ; preds = %2
  %25 = landingpad { ptr, i32 }
          cleanup
          catch ptr @_ZTIN3mbp12is_ground_ns5foundE
  call void @_ZN13ast_fast_markILj1EED2Ev(ptr noundef nonnull align 8 dereferenceable(144) %3) #27
  call void @llvm.lifetime.end.p0(i64 144, ptr nonnull %3) #27
  %26 = extractvalue { ptr, i32 } %25, 1
  call void @llvm.lifetime.end.p0(i64 8, ptr nonnull %4) #27
  %27 = call i32 @llvm.eh.typeid.for.p0(ptr nonnull @_ZTIN3mbp12is_ground_ns5foundE) #27
  %28 = icmp eq i32 %26, %27
  br i1 %28, label %30, label %34

29:                                               ; preds = %21, %.loopexit.i.i
  call void @llvm.lifetime.end.p0(i64 144, ptr nonnull %3) #27
  call void @llvm.lifetime.end.p0(i64 8, ptr nonnull %4) #27
  br label %33

30:                                               ; preds = %.body
  %31 = extractvalue { ptr, i32 } %25, 0
  %32 = call ptr @__cxa_begin_catch(ptr %31) #27
  call void @__cxa_end_catch()
  br label %33

33:                                               ; preds = %29, %30
  %.0 = phi i1 [ true, %29 ], [ false, %30 ]
  ret i1 %.0

34:                                               ; preds = %.body
  resume { ptr, i32 } %25
}